; Function Attrs: mustprogress uwtable
define void @_ZNK8facebook5velox4core10UnnestNode10addDetailsERNSt7__cxx1118basic_stringstreamIcSt11char_traitsIcESaIcEEE(ptr nocapture noundef nonnull readonly align 8 dereferenceable(136) %this, ptr noundef nonnull align 8 dereferenceable(128) %stream) unnamed_addr #0 align 2 {
entry:
  %unnestVariables_ = getelementptr inbounds i8, ptr %this, i64 64
  %_M_finish.i.i = getelementptr inbounds i8, ptr %this, i64 72
  %0 = load ptr, ptr %_M_finish.i.i, align 8
  %1 = load ptr, ptr %unnestVariables_, align 8
  %cmp11.not.i = icmp eq ptr %0, %1
  br i1 %cmp11.not.i, label %_ZN8facebook5velox4core12_GLOBAL__N_19addFieldsERNSt7__cxx1118basic_stringstreamIcSt11char_traitsIcESaIcEEERKSt6vectorISt10shared_ptrIKNS1_20FieldAccessTypedExprEESaISE_EE.exit, label %for.body.lr.ph.i

for.body.lr.ph.i:                                 ; preds = %entry
  %add.ptr.i.i = getelementptr inbounds i8, ptr %stream, i64 16
  br label %for.body.i

for.body.i:                                       ; preds = %_ZN8facebook5velox4core12_GLOBAL__N_111appendCommaEiRNSt7__cxx1118basic_stringstreamIcSt11char_traitsIcESaIcEEE.exit.i, %for.body.lr.ph.i
  %2 = phi ptr [ %1, %for.body.lr.ph.i ], [ %6, %_ZN8facebook5velox4core12_GLOBAL__N_111appendCommaEiRNSt7__cxx1118basic_stringstreamIcSt11char_traitsIcESaIcEEE.exit.i ]
  %indvars.iv.i = phi i64 [ 0, %for.body.lr.ph.i ], [ %indvars.iv.next.i, %_ZN8facebook5velox4core12_GLOBAL__N_111appendCommaEiRNSt7__cxx1118basic_stringstreamIcSt11char_traitsIcESaIcEEE.exit.i ]
  %cmp.i.not.i = icmp eq i64 %indvars.iv.i, 0
  br i1 %cmp.i.not.i, label %_ZN8facebook5velox4core12_GLOBAL__N_111appendCommaEiRNSt7__cxx1118basic_stringstreamIcSt11char_traitsIcESaIcEEE.exit.i, label %if.then.i.i

if.then.i.i:                                      ; preds = %for.body.i
  %call.i.i = tail call noundef nonnull align 8 dereferenceable(8) ptr @_ZStlsISt11char_traitsIcEERSt13basic_ostreamIcT_ES5_PKc(ptr noundef nonnull align 8 dereferenceable(8) %add.ptr.i.i, ptr noundef nonnull @.str.15)
  %.pre.i = load ptr, ptr %unnestVariables_, align 8
  br label %_ZN8facebook5velox4core12_GLOBAL__N_111appendCommaEiRNSt7__cxx1118basic_stringstreamIcSt11char_traitsIcESaIcEEE.exit.i

_ZN8facebook5velox4core12_GLOBAL__N_111appendCommaEiRNSt7__cxx1118basic_stringstreamIcSt11char_traitsIcESaIcEEE.exit.i: ; preds = %if.then.i.i, %for.body.i
  %3 = phi ptr [ %2, %for.body.i ], [ %.pre.i, %if.then.i.i ]
  %add.ptr.i6.i = getelementptr inbounds %"class.std::shared_ptr.24", ptr %3, i64 %indvars.iv.i
  %4 = load ptr, ptr %add.ptr.i6.i, align 8
  %name_.i.i = getelementptr inbounds i8, ptr %4, i64 48
  %call5.i = tail call noundef nonnull align 8 dereferenceable(8) ptr @_ZStlsIcSt11char_traitsIcESaIcEERSt13basic_ostreamIT_T0_ES7_RKNSt7__cxx1112basic_stringIS4_S5_T1_EE(ptr noundef nonnull align 8 dereferenceable(8) %add.ptr.i.i, ptr noundef nonnull align 8 dereferenceable(32) %name_.i.i)
  %indvars.iv.next.i = add nuw i64 %indvars.iv.i, 1
  %5 = load ptr, ptr %_M_finish.i.i, align 8
  %6 = load ptr, ptr %unnestVariables_, align 8
  %sub.ptr.lhs.cast.i.i = ptrtoint ptr %5 to i64
  %sub.ptr.rhs.cast.i.i = ptrtoint ptr %6 to i64
  %sub.ptr.sub.i.i = sub i64 %sub.ptr.lhs.cast.i.i, %sub.ptr.rhs.cast.i.i
  %sub.ptr.div.i.i = ashr exact i64 %sub.ptr.sub.i.i, 4
  %cmp.i = icmp ugt i64 %sub.ptr.div.i.i, %indvars.iv.next.i
  br i1 %cmp.i, label %for.body.i, label %_ZN8facebook5velox4core12_GLOBAL__N_19addFieldsERNSt7__cxx1118basic_stringstreamIcSt11char_traitsIcESaIcEEERKSt6vectorISt10shared_ptrIKNS1_20FieldAccessTypedExprEESaISE_EE.exit, !llvm.loop !33

_ZN8facebook5velox4core12_GLOBAL__N_19addFieldsERNSt7__cxx1118basic_stringstreamIcSt11char_traitsIcESaIcEEERKSt6vectorISt10shared_ptrIKNS1_20FieldAccessTypedExprEESaISE_EE.exit: ; preds = %_ZN8facebook5velox4core12_GLOBAL__N_111appendCommaEiRNSt7__cxx1118basic_stringstreamIcSt11char_traitsIcESaIcEEE.exit.i, %entry
  ret void
}